target datalayout = "e-m:e-p270:32:32-p271:32:32-p272:64:64-i64:64-i128:128-f80:128-n8:16:32:64-S128"
target triple = "x86_64-pc-linux-gnu"

%struct.DefElem = type { i32, ptr, ptr, ptr, i32, i32 }
%struct.Node = type { i32 }
%struct.Integer = type { i32, i32 }
%struct.Float = type { i32, ptr }
%struct.Boolean = type { i32, i8 }
%struct.String = type { i32, ptr }

@.str = private unnamed_addr constant [24 x i8] c"%s requires a parameter\00", align 1
@.str.1 = private unnamed_addr constant [9 x i8] c"define.c\00", align 1
@__func__.defGetString = private unnamed_addr constant [13 x i8] c"defGetString\00", align 1
@.str.2 = private unnamed_addr constant [4 x i8] c"%ld\00", align 1
@.str.3 = private unnamed_addr constant [5 x i8] c"true\00", align 1
@.str.4 = private unnamed_addr constant [6 x i8] c"false\00", align 1
@.str.5 = private unnamed_addr constant [2 x i8] c"*\00", align 1
@.str.6 = private unnamed_addr constant [27 x i8] c"unrecognized node type: %d\00", align 1

; Function Attrs: nounwind uwtable
define dso_local ptr @defGetString(ptr noundef %0) #0 {
  %2 = alloca ptr, align 8
  %3 = alloca ptr, align 8
  store ptr %0, ptr %3, align 8
  %4 = load ptr, ptr %3, align 8
  %5 = getelementptr inbounds nuw %struct.DefElem, ptr %4, i32 0, i32 3
  %6 = load ptr, ptr %5, align 8
  %7 = icmp eq ptr %6, null
  br i1 %7, label %8, label %22

8:                                                ; preds = %1
  br label %9

9:                                                ; preds = %8
  br i1 true, label %10, label %12

10:                                               ; preds = %9
  %11 = call zeroext i1 @errstart_cold(i32 noundef 21, ptr noundef null) #9
  br i1 %11, label %14, label %20

12:                                               ; preds = %9
  %13 = call zeroext i1 @errstart(i32 noundef 21, ptr noundef null)
  br i1 %13, label %14, label %20

14:                                               ; preds = %12, %10
  %15 = call i32 @errcode(i32 noundef 16801924)
  %16 = load ptr, ptr %3, align 8
  %17 = getelementptr inbounds nuw %struct.DefElem, ptr %16, i32 0, i32 2
  %18 = load ptr, ptr %17, align 8
  %19 = call i32 (ptr, ...) @errmsg(ptr noundef @.str, ptr noundef %18)
  call void @errfinish(ptr noundef @.str.1, i32 noundef 41, ptr noundef @__func__.defGetString)
  br label %20

20:                                               ; preds = %14, %12, %10
  unreachable

21:                                               ; No predecessors!
  br label %22

22:                                               ; preds = %21, %1
  %23 = load ptr, ptr %3, align 8
  %24 = getelementptr inbounds nuw %struct.DefElem, ptr %23, i32 0, i32 3
  %25 = load ptr, ptr %24, align 8
  %26 = getelementptr inbounds nuw %struct.Node, ptr %25, i32 0, i32 0
  %27 = load i32, ptr %26, align 4
  switch i32 %27, label %68 [
    i32 464, label %28
    i32 465, label %36
    i32 466, label %42
    i32 467, label %50
    i32 68, label %56
    i32 1, label %61
    i32 77, label %66
  ]

28:                                               ; preds = %22
  %29 = load ptr, ptr %3, align 8
  %30 = getelementptr inbounds nuw %struct.DefElem, ptr %29, i32 0, i32 3
  %31 = load ptr, ptr %30, align 8
  %32 = getelementptr inbounds nuw %struct.Integer, ptr %31, i32 0, i32 1
  %33 = load i32, ptr %32, align 4
  %34 = sext i32 %33 to i64
  %35 = call ptr (ptr, ...) @psprintf(ptr noundef @.str.2, i64 noundef %34)
  store ptr %35, ptr %2, align 8
  br label %84

36:                                               ; preds = %22
  %37 = load ptr, ptr %3, align 8
  %38 = getelementptr inbounds nuw %struct.DefElem, ptr %37, i32 0, i32 3
  %39 = load ptr, ptr %38, align 8
  %40 = getelementptr inbounds nuw %struct.Float, ptr %39, i32 0, i32 1
  %41 = load ptr, ptr %40, align 8
  store ptr %41, ptr %2, align 8
  br label %84

42:                                               ; preds = %22
  %43 = load ptr, ptr %3, align 8
  %44 = getelementptr inbounds nuw %struct.DefElem, ptr %43, i32 0, i32 3
  %45 = load ptr, ptr %44, align 8
  %46 = getelementptr inbounds nuw %struct.Boolean, ptr %45, i32 0, i32 1
  %47 = load i8, ptr %46, align 4, !range !4, !noundef !5
  %48 = trunc i8 %47 to i1
  %49 = select i1 %48, ptr @.str.3, ptr @.str.4
  store ptr %49, ptr %2, align 8
  br label %84

50:                                               ; preds = %22
  %51 = load ptr, ptr %3, align 8
  %52 = getelementptr inbounds nuw %struct.DefElem, ptr %51, i32 0, i32 3
  %53 = load ptr, ptr %52, align 8
  %54 = getelementptr inbounds nuw %struct.String, ptr %53, i32 0, i32 1
  %55 = load ptr, ptr %54, align 8
  store ptr %55, ptr %2, align 8
  br label %84

56:                                               ; preds = %22
  %57 = load ptr, ptr %3, align 8
  %58 = getelementptr inbounds nuw %struct.DefElem, ptr %57, i32 0, i32 3
  %59 = load ptr, ptr %58, align 8
  %60 = call ptr @TypeNameToString(ptr noundef %59)
  store ptr %60, ptr %2, align 8
  br label %84

61:                                               ; preds = %22
  %62 = load ptr, ptr %3, align 8
  %63 = getelementptr inbounds nuw %struct.DefElem, ptr %62, i32 0, i32 3
  %64 = load ptr, ptr %63, align 8
  %65 = call ptr @NameListToString(ptr noundef %64)
  store ptr %65, ptr %2, align 8
  br label %84

66:                                               ; preds = %22
  %67 = call ptr @pstrdup(ptr noundef @.str.5)
  store ptr %67, ptr %2, align 8
  br label %84

68:                                               ; preds = %22
  br label %69

69:                                               ; preds = %68
  br i1 true, label %70, label %72

70:                                               ; preds = %69
  %71 = call zeroext i1 @errstart_cold(i32 noundef 21, ptr noundef null) #9
  br i1 %71, label %74, label %81

72:                                               ; preds = %69
  %73 = call zeroext i1 @errstart(i32 noundef 21, ptr noundef null)
  br i1 %73, label %74, label %81

74:                                               ; preds = %72, %70
  %75 = load ptr, ptr %3, align 8
  %76 = getelementptr inbounds nuw %struct.DefElem, ptr %75, i32 0, i32 3
  %77 = load ptr, ptr %76, align 8
  %78 = getelementptr inbounds nuw %struct.Node, ptr %77, i32 0, i32 0
  %79 = load i32, ptr %78, align 4
  %80 = call i32 (ptr, ...) @errmsg_internal(ptr noundef @.str.6, i32 noundef %79)
  call void @errfinish(ptr noundef @.str.1, i32 noundef 59, ptr noundef @__func__.defGetString)
  br label %81

81:                                               ; preds = %74, %72, %70
  unreachable

82:                                               ; No predecessors!
  br label %83

83:                                               ; preds = %82
  store ptr null, ptr %2, align 8
  br label %84

84:                                               ; preds = %83, %66, %61, %56, %50, %42, %36, %28
  %85 = load ptr, ptr %2, align 8
  ret ptr %85
}