; Function Attrs: nounwind uwtable
define dso_local ptr @defGetString(ptr noundef readonly captures(none) %0) local_unnamed_addr #0 {
  %2 = getelementptr inbounds nuw i8, ptr %0, i64 24
  %3 = load ptr, ptr %2, align 8
  %4 = icmp eq ptr %3, null
  br i1 %4, label %5, label %11

5:                                                ; preds = %1
  %6 = tail call zeroext i1 @errstart_cold(i32 noundef 21, ptr noundef null) #6
  tail call void @llvm.assume(i1 %6)
  %7 = tail call i32 @errcode(i32 noundef 16801924) #7
  %8 = getelementptr inbounds nuw i8, ptr %0, i64 16
  %9 = load ptr, ptr %8, align 8
  %10 = tail call i32 (ptr, ...) @errmsg(ptr noundef nonnull @.str, ptr noundef %9) #7
  tail call void @errfinish(ptr noundef nonnull @.str.1, i32 noundef 41, ptr noundef nonnull @__func__.defGetString) #7
  unreachable

11:                                               ; preds = %1
  %12 = load i32, ptr %3, align 4
  switch i32 %12, label %35 [
    i32 464, label %13
    i32 465, label %18
    i32 466, label %21
    i32 467, label %26
    i32 68, label %29
    i32 1, label %31
    i32 77, label %33
  ]

13:                                               ; preds = %11
  %14 = getelementptr inbounds nuw i8, ptr %3, i64 4
  %15 = load i32, ptr %14, align 4
  %16 = sext i32 %15 to i64
  %17 = tail call ptr (ptr, ...) @psprintf(ptr noundef nonnull @.str.2, i64 noundef %16) #7
  br label %40

18:                                               ; preds = %11
  %19 = getelementptr inbounds nuw i8, ptr %3, i64 8
  %20 = load ptr, ptr %19, align 8
  br label %40

21:                                               ; preds = %11
  %22 = getelementptr inbounds nuw i8, ptr %3, i64 4
  %23 = load i8, ptr %22, align 4, !range !4, !noundef !5
  %24 = trunc nuw i8 %23 to i1
  %25 = select i1 %24, ptr @.str.3, ptr @.str.4
  br label %40

26:                                               ; preds = %11
  %27 = getelementptr inbounds nuw i8, ptr %3, i64 8
  %28 = load ptr, ptr %27, align 8
  br label %40

29:                                               ; preds = %11
  %30 = tail call ptr @TypeNameToString(ptr noundef nonnull %3) #7
  br label %40

31:                                               ; preds = %11
  %32 = tail call ptr @NameListToString(ptr noundef nonnull %3) #7
  br label %40

33:                                               ; preds = %11
  %34 = tail call ptr @pstrdup(ptr noundef nonnull @.str.5) #7
  br label %40

35:                                               ; preds = %11
  %36 = tail call zeroext i1 @errstart_cold(i32 noundef 21, ptr noundef null) #6
  tail call void @llvm.assume(i1 %36)
  %37 = load ptr, ptr %2, align 8
  %38 = load i32, ptr %37, align 4
  %39 = tail call i32 (ptr, ...) @errmsg_internal(ptr noundef nonnull @.str.6, i32 noundef %38) #7
  tail call void @errfinish(ptr noundef nonnull @.str.1, i32 noundef 59, ptr noundef nonnull @__func__.defGetString) #7
  unreachable

40:                                               ; preds = %33, %31, %29, %26, %21, %18, %13
  %.0 = phi ptr [ %34, %33 ], [ %32, %31 ], [ %30, %29 ], [ %28, %26 ], [ %25, %21 ], [ %20, %18 ], [ %17, %13 ]
  ret ptr %.0
}